target datalayout = "e-m:e-p270:32:32-p271:32:32-p272:64:64-i64:64-i128:128-f80:128-n8:16:32:64-S128"
target triple = "x86_64-pc-linux-gnu"

%struct.lua_State = type { %struct.GCRef, i8, i8, i8, i8, %struct.MRef, %struct.GCRef, ptr, ptr, %struct.MRef, %struct.MRef, %struct.GCRef, %struct.GCRef, ptr, i32 }
%struct.MRef = type { i64 }
%struct.GCRef = type { i64 }
%union.TValue = type { i64 }
%struct.GCtab = type { %struct.GCRef, i8, i8, i8, i8, %struct.MRef, %struct.GCRef, %struct.GCRef, %struct.MRef, i32, i32, %struct.MRef }

@.str = private unnamed_addr constant [3 x i8] c"_G\00", align 1
@.str.1 = private unnamed_addr constant [8 x i8] c"Lua 5.1\00", align 1
@.str.2 = private unnamed_addr constant [10 x i8] c"coroutine\00", align 1
@lj_lib_init_coroutine = internal constant [57 x i8] c"\1E\0D\07\06status\07running\0Bisyieldable\06createEyieldFresume\FE\04wrap\FF", align 16
@lj_lib_cf_coroutine = internal constant [7 x ptr] [ptr @lj_cf_coroutine_status, ptr @lj_cf_coroutine_running, ptr @lj_cf_coroutine_isyieldable, ptr @lj_cf_coroutine_create, ptr @lj_ffh_coroutine_yield, ptr @lj_ffh_coroutine_resume, ptr @lj_cf_coroutine_wrap], align 16
@.str.4 = private unnamed_addr constant [24 x i8] c"store to dead GC object\00", align 1
@.str.5 = private unnamed_addr constant [7 x i8] c"__mode\00", align 1
@.str.6 = private unnamed_addr constant [3 x i8] c"kv\00", align 1

; Function Attrs: alwaysinline nounwind uwtable
define internal void @checklivetv(ptr noundef %0, ptr noundef %1, ptr noundef %2) #1 {
  %4 = alloca ptr, align 8
  %5 = alloca ptr, align 8
  %6 = alloca ptr, align 8
  store ptr %0, ptr %4, align 8, !tbaa !4
  store ptr %1, ptr %5, align 8, !tbaa !17
  store ptr %2, ptr %6, align 8, !tbaa !25
  ret void
}

; Function Attrs: alwaysinline nounwind uwtable
define internal void @setgcVraw(ptr noundef %0, ptr noundef %1, i32 noundef %2) #1 {
  %4 = alloca ptr, align 8
  %5 = alloca ptr, align 8
  %6 = alloca i32, align 4
  store ptr %0, ptr %4, align 8, !tbaa !17
  store ptr %1, ptr %5, align 8, !tbaa !27
  store i32 %2, ptr %6, align 4, !tbaa !29
  %7 = load ptr, ptr %5, align 8, !tbaa !27
  %8 = ptrtoint ptr %7 to i64
  %9 = load i32, ptr %6, align 4, !tbaa !29
  %10 = zext i32 %9 to i64
  %11 = shl i64 %10, 47
  %12 = or i64 %8, %11
  %13 = load ptr, ptr %4, align 8, !tbaa !17
  %14 = getelementptr inbounds nuw %struct.GCRef, ptr %13, i32 0, i32 0
  store i64 %12, ptr %14, align 8, !tbaa !16
  ret void
}

; Function Attrs: alwaysinline nounwind uwtable
define internal void @setstrV(ptr noundef %0, ptr noundef %1, ptr noundef %2) #1 {
  %4 = alloca ptr, align 8
  %5 = alloca ptr, align 8
  %6 = alloca ptr, align 8
  store ptr %0, ptr %4, align 8, !tbaa !4
  store ptr %1, ptr %5, align 8, !tbaa !17
  store ptr %2, ptr %6, align 8, !tbaa !30
  %7 = load ptr, ptr %4, align 8, !tbaa !4
  %8 = load ptr, ptr %5, align 8, !tbaa !17
  %9 = load ptr, ptr %6, align 8, !tbaa !30
  call void @setgcV(ptr noundef %7, ptr noundef %8, ptr noundef %9, i32 noundef -5)
  ret void
}

; Function Attrs: alwaysinline nounwind uwtable
define internal void @setgcV(ptr noundef %0, ptr noundef %1, ptr noundef %2, i32 noundef %3) #1 {
  %5 = alloca ptr, align 8
  %6 = alloca ptr, align 8
  %7 = alloca ptr, align 8
  %8 = alloca i32, align 4
  store ptr %0, ptr %5, align 8, !tbaa !4
  store ptr %1, ptr %6, align 8, !tbaa !17
  store ptr %2, ptr %7, align 8, !tbaa !27
  store i32 %3, ptr %8, align 4, !tbaa !29
  %9 = load ptr, ptr %6, align 8, !tbaa !17
  %10 = load ptr, ptr %7, align 8, !tbaa !27
  %11 = load i32, ptr %8, align 4, !tbaa !29
  call void @setgcVraw(ptr noundef %9, ptr noundef %10, i32 noundef %11)
  %12 = load ptr, ptr %5, align 8, !tbaa !4
  %13 = load ptr, ptr %6, align 8, !tbaa !17
  call void @checklivetv(ptr noundef %12, ptr noundef %13, ptr noundef @.str.4)
  ret void
}

; Function Attrs: nounwind uwtable
define internal void @newproxy_weaktable(ptr noundef %0) #3 {
  %2 = alloca ptr, align 8
  %3 = alloca ptr, align 8
  store ptr %0, ptr %2, align 8, !tbaa !4
  call void @llvm.lifetime.start.p0(i64 8, ptr %3) #11
  %4 = load ptr, ptr %2, align 8, !tbaa !4
  %5 = call ptr @lj_tab_new(ptr noundef %4, i32 noundef 0, i32 noundef 1)
  store ptr %5, ptr %3, align 8, !tbaa !20
  %6 = load ptr, ptr %2, align 8, !tbaa !4
  %7 = load ptr, ptr %2, align 8, !tbaa !4
  %8 = getelementptr inbounds nuw %struct.lua_State, ptr %7, i32 0, i32 8
  %9 = load ptr, ptr %8, align 8, !tbaa !9
  %10 = getelementptr inbounds nuw %union.TValue, ptr %9, i32 1
  store ptr %10, ptr %8, align 8, !tbaa !9
  %11 = load ptr, ptr %3, align 8, !tbaa !20
  call void @settabV(ptr noundef %6, ptr noundef %9, ptr noundef %11)
  %12 = load ptr, ptr %3, align 8, !tbaa !20
  %13 = ptrtoint ptr %12 to i64
  %14 = load ptr, ptr %3, align 8, !tbaa !20
  %15 = getelementptr inbounds nuw %struct.GCtab, ptr %14, i32 0, i32 7
  %16 = getelementptr inbounds nuw %struct.GCRef, ptr %15, i32 0, i32 0
  store i64 %13, ptr %16, align 8, !tbaa !22
  %17 = load ptr, ptr %2, align 8, !tbaa !4
  %18 = load ptr, ptr %2, align 8, !tbaa !4
  %19 = load ptr, ptr %3, align 8, !tbaa !20
  %20 = load ptr, ptr %2, align 8, !tbaa !4
  %21 = call ptr @lj_str_new(ptr noundef %20, ptr noundef @.str.5, i64 noundef 6)
  %22 = call ptr @lj_tab_setstr(ptr noundef %18, ptr noundef %19, ptr noundef %21)
  %23 = load ptr, ptr %2, align 8, !tbaa !4
  %24 = call ptr @lj_str_new(ptr noundef %23, ptr noundef @.str.6, i64 noundef 2)
  call void @setstrV(ptr noundef %17, ptr noundef %22, ptr noundef %24)
  %25 = load ptr, ptr %3, align 8, !tbaa !20
  %26 = getelementptr inbounds nuw %struct.GCtab, ptr %25, i32 0, i32 3
  store i8 -9, ptr %26, align 2, !tbaa !24
  call void @llvm.lifetime.end.p0(i64 8, ptr %3) #11
  ret void
}

; Function Attrs: alwaysinline nounwind uwtable
define internal void @settabV(ptr noundef %0, ptr noundef %1, ptr noundef %2) #1 {
  %4 = alloca ptr, align 8
  %5 = alloca ptr, align 8
  %6 = alloca ptr, align 8
  store ptr %0, ptr %4, align 8, !tbaa !4
  store ptr %1, ptr %5, align 8, !tbaa !17
  store ptr %2, ptr %6, align 8, !tbaa !20
  %7 = load ptr, ptr %4, align 8, !tbaa !4
  %8 = load ptr, ptr %5, align 8, !tbaa !17
  %9 = load ptr, ptr %6, align 8, !tbaa !20
  call void @setgcV(ptr noundef %7, ptr noundef %8, ptr noundef %9, i32 noundef -12)
  ret void
}

; Function Attrs: nounwind uwtable
define dso_local i32 @luaopen_base(ptr noundef %0) #3 {
  %2 = alloca ptr, align 8
  %3 = alloca ptr, align 8
  store ptr %0, ptr %2, align 8, !tbaa !4
  call void @llvm.lifetime.start.p0(i64 8, ptr %3) #11
  %4 = load ptr, ptr %2, align 8, !tbaa !4
  %5 = getelementptr inbounds nuw %struct.lua_State, ptr %4, i32 0, i32 12
  %6 = getelementptr inbounds nuw %struct.GCRef, ptr %5, i32 0, i32 0
  %7 = load i64, ptr %6, align 8, !tbaa !19
  %8 = inttoptr i64 %7 to ptr
  store ptr %8, ptr %3, align 8, !tbaa !20
  %9 = load ptr, ptr %2, align 8, !tbaa !4
  %10 = load ptr, ptr %2, align 8, !tbaa !4
  %11 = load ptr, ptr %3, align 8, !tbaa !20
  %12 = load ptr, ptr %2, align 8, !tbaa !4
  %13 = call ptr @lj_str_new(ptr noundef %12, ptr noundef @.str, i64 noundef 2)
  %14 = call ptr @lj_tab_setstr(ptr noundef %10, ptr noundef %11, ptr noundef %13)
  %15 = load ptr, ptr %3, align 8, !tbaa !20
  call void @settabV(ptr noundef %9, ptr noundef %14, ptr noundef %15)
  %16 = load ptr, ptr %2, align 8, !tbaa !4
  call void @lua_pushlstring(ptr noundef %16, ptr noundef @.str.1, i64 noundef 7)
  %17 = load ptr, ptr %2, align 8, !tbaa !4
  call void @newproxy_weaktable(ptr noundef %17)
  %18 = load ptr, ptr %2, align 8, !tbaa !4
  call void @lj_lib_register(ptr noundef %18, ptr noundef @.str, ptr noundef @lj_lib_init_base, ptr noundef @lj_lib_cf_base)
  %19 = load ptr, ptr %2, align 8, !tbaa !4
  call void @lj_lib_register(ptr noundef %19, ptr noundef @.str.2, ptr noundef @lj_lib_init_coroutine, ptr noundef @lj_lib_cf_coroutine)
  call void @llvm.lifetime.end.p0(i64 8, ptr %3) #11
  ret i32 2
}