; Function Attrs: nounwind uwtable
define dso_local noundef i32 @luaopen_base(ptr noundef %0) local_unnamed_addr #2 {
  %2 = getelementptr inbounds nuw i8, ptr %0, i64 72
  %3 = load i64, ptr %2, align 8, !tbaa !15
  %4 = inttoptr i64 %3 to ptr
  %5 = tail call ptr @lj_str_new(ptr noundef %0, ptr noundef nonnull @.str, i64 noundef 2) #11
  %6 = tail call ptr @lj_tab_setstr(ptr noundef %0, ptr noundef %4, ptr noundef %5) #11
  %7 = or i64 %3, -1688849860263936
  store i64 %7, ptr %6, align 8, !tbaa !14
  tail call void @lua_pushlstring(ptr noundef %0, ptr noundef nonnull @.str.1, i64 noundef 7) #11
  %8 = tail call ptr @lj_tab_new(ptr noundef %0, i32 noundef 0, i32 noundef 1) #11
  %9 = getelementptr inbounds nuw i8, ptr %0, i64 40
  %10 = load ptr, ptr %9, align 8, !tbaa !4
  %11 = getelementptr inbounds nuw i8, ptr %10, i64 8
  store ptr %11, ptr %9, align 8, !tbaa !4
  %12 = ptrtoint ptr %8 to i64
  %13 = or i64 %12, -1688849860263936
  store i64 %13, ptr %10, align 8, !tbaa !14
  %14 = getelementptr inbounds nuw i8, ptr %8, i64 32
  store i64 %12, ptr %14, align 8, !tbaa !16
  %15 = tail call ptr @lj_str_new(ptr noundef %0, ptr noundef nonnull @.str.5, i64 noundef 6) #11
  %16 = tail call ptr @lj_tab_setstr(ptr noundef %0, ptr noundef %8, ptr noundef %15) #11
  %17 = tail call ptr @lj_str_new(ptr noundef %0, ptr noundef nonnull @.str.6, i64 noundef 2) #11
  %18 = ptrtoint ptr %17 to i64
  %19 = or i64 %18, -703687441776640
  store i64 %19, ptr %16, align 8, !tbaa !14
  %20 = getelementptr inbounds nuw i8, ptr %8, i64 10
  store i8 -9, ptr %20, align 2, !tbaa !18
  tail call void @lj_lib_register(ptr noundef %0, ptr noundef nonnull @.str, ptr noundef nonnull @lj_lib_init_base, ptr noundef nonnull @lj_lib_cf_base) #11
  tail call void @lj_lib_register(ptr noundef %0, ptr noundef nonnull @.str.2, ptr noundef nonnull @lj_lib_init_coroutine, ptr noundef nonnull @lj_lib_cf_coroutine) #11
  ret i32 2
}